target datalayout = "e-m:e-p270:32:32-p271:32:32-p272:64:64-i64:64-i128:128-f80:128-n8:16:32:64-S128"
target triple = "x86_64-pc-linux-gnu"

%struct.png_struct_def = type { [1 x %struct.__jmp_buf_tag], ptr, ptr, i64, ptr, ptr, ptr, ptr, ptr, ptr, ptr, ptr, ptr, i8, i8, i32, i32, i32, i32, %struct.z_stream_s, ptr, i32, i32, i32, i32, i32, i32, i32, i32, i32, i32, i32, i32, i32, i32, i32, i32, i32, i32, i32, i32, i64, i32, i32, i32, ptr, ptr, ptr, ptr, i64, i32, i32, ptr, i16, i32, i16, i8, i8, i8, i8, i8, i8, i8, i8, i8, i8, i8, i8, i8, i8, i8, i16, i8, i32, %struct.png_color_16_struct, %struct.png_color_16_struct, ptr, i32, i32, i32, i32, ptr, ptr, ptr, ptr, ptr, ptr, %struct.png_color_8_struct, %struct.png_color_8_struct, ptr, %struct.png_color_16_struct, ptr, ptr, ptr, ptr, ptr, ptr, ptr, ptr, ptr, i32, i32, i64, i64, i64, i64, i32, i32, ptr, ptr, i32, [29 x i8], i32, ptr, ptr, i32, i32, ptr, i8, i8, i16, i16, ptr, i32, i8, ptr, ptr, ptr, ptr, ptr, ptr, ptr, i8, i32, i32, i32, i64, %struct.png_unknown_chunk_t, i64, ptr, i64, i32, i32, ptr, [4 x ptr], %struct.png_colorspace }
%struct.__jmp_buf_tag = type { [8 x i64], i32, %struct.__sigset_t }
%struct.__sigset_t = type { [16 x i64] }
%struct.z_stream_s = type { ptr, i32, i64, ptr, i32, i64, ptr, ptr, ptr, ptr, ptr, i32, i64, i64 }
%struct.png_color_8_struct = type { i8, i8, i8, i8, i8 }
%struct.png_color_16_struct = type { i8, i16, i16, i16, i16 }
%struct.png_unknown_chunk_t = type { [5 x i8], ptr, i64, i8 }
%struct.png_colorspace = type { i32, %struct.png_xy, %struct.png_XYZ, i16, i16 }
%struct.png_xy = type { i32, i32, i32, i32, i32, i32, i32, i32 }
%struct.png_XYZ = type { i32, i32, i32, i32, i32, i32, i32, i32, i32 }
%struct.png_image_write_control = type { ptr, ptr, i32, ptr, i32, ptr, i64, ptr, ptr, i64, i64 }

@.str.25 = private unnamed_addr constant [39 x i8] c"png_image_write_to_memory: PNG too big\00", align 1

; Function Attrs: nounwind uwtable
define internal void @image_memory_write(ptr noundef %0, ptr noundef %1, i64 noundef %2) #0 {
  %4 = alloca ptr, align 8
  %5 = alloca ptr, align 8
  %6 = alloca i64, align 8
  %7 = alloca ptr, align 8
  %8 = alloca i64, align 8
  store ptr %0, ptr %4, align 8
  store ptr %1, ptr %5, align 8
  store i64 %2, ptr %6, align 8
  %9 = load ptr, ptr %4, align 8
  %10 = getelementptr inbounds %struct.png_struct_def, ptr %9, i32 0, i32 9
  %11 = load ptr, ptr %10, align 8
  store ptr %11, ptr %7, align 8
  %12 = load ptr, ptr %7, align 8
  %13 = getelementptr inbounds %struct.png_image_write_control, ptr %12, i32 0, i32 10
  %14 = load i64, ptr %13, align 8
  store i64 %14, ptr %8, align 8
  %15 = load i64, ptr %6, align 8
  %16 = load i64, ptr %8, align 8
  %17 = sub i64 -1, %16
  %18 = icmp ule i64 %15, %17
  br i1 %18, label %19, label %45

19:                                               ; preds = %3
  %20 = load i64, ptr %6, align 8
  %21 = icmp ugt i64 %20, 0
  br i1 %21, label %22, label %44

22:                                               ; preds = %19
  %23 = load ptr, ptr %7, align 8
  %24 = getelementptr inbounds %struct.png_image_write_control, ptr %23, i32 0, i32 9
  %25 = load i64, ptr %24, align 8
  %26 = load i64, ptr %8, align 8
  %27 = load i64, ptr %6, align 8
  %28 = add i64 %26, %27
  %29 = icmp uge i64 %25, %28
  br i1 %29, label %30, label %38

30:                                               ; preds = %22
  %31 = load ptr, ptr %7, align 8
  %32 = getelementptr inbounds %struct.png_image_write_control, ptr %31, i32 0, i32 8
  %33 = load ptr, ptr %32, align 8
  %34 = load i64, ptr %8, align 8
  %35 = getelementptr inbounds i8, ptr %33, i64 %34
  %36 = load ptr, ptr %5, align 8
  %37 = load i64, ptr %6, align 8
  call void @llvm.memcpy.p0.p0.i64(ptr align 1 %35, ptr align 1 %36, i64 %37, i1 false)
  br label %38

38:                                               ; preds = %30, %22
  %39 = load i64, ptr %8, align 8
  %40 = load i64, ptr %6, align 8
  %41 = add i64 %39, %40
  %42 = load ptr, ptr %7, align 8
  %43 = getelementptr inbounds %struct.png_image_write_control, ptr %42, i32 0, i32 10
  store i64 %41, ptr %43, align 8
  br label %44

44:                                               ; preds = %38, %19
  br label %47

45:                                               ; preds = %3
  %46 = load ptr, ptr %4, align 8
  call void @png_error(ptr noundef %46, ptr noundef @.str.25) #7
  unreachable

47:                                               ; preds = %44
  ret void
}