; Function Attrs: nounwind uwtable
define internal void @image_memory_write(ptr noundef %0, ptr nocapture noundef readonly %1, i64 noundef %2) #0 {
  %4 = getelementptr inbounds i8, ptr %0, i64 264
  %5 = load ptr, ptr %4, align 8
  %6 = getelementptr inbounds i8, ptr %5, i64 80
  %7 = load i64, ptr %6, align 8
  %8 = xor i64 %7, -1
  %.not = icmp ult i64 %8, %2
  br i1 %.not, label %19, label %9

9:                                                ; preds = %3
  %.not15 = icmp eq i64 %2, 0
  br i1 %.not15, label %20, label %10

10:                                               ; preds = %9
  %11 = getelementptr inbounds i8, ptr %5, i64 72
  %12 = load i64, ptr %11, align 8
  %13 = add i64 %7, %2
  %.not16 = icmp ult i64 %12, %13
  br i1 %.not16, label %18, label %14

14:                                               ; preds = %10
  %15 = getelementptr inbounds i8, ptr %5, i64 64
  %16 = load ptr, ptr %15, align 8
  %17 = getelementptr inbounds i8, ptr %16, i64 %7
  tail call void @llvm.memcpy.p0.p0.i64(ptr align 1 %17, ptr align 1 %1, i64 %2, i1 false)
  br label %18

18:                                               ; preds = %14, %10
  store i64 %13, ptr %6, align 8
  br label %20

19:                                               ; preds = %3
  tail call void @png_error(ptr noundef nonnull %0, ptr noundef nonnull @.str.25) #16
  unreachable

20:                                               ; preds = %9, %18
  ret void
}